target datalayout = "e-m:e-p270:32:32-p271:32:32-p272:64:64-i64:64-i128:128-f80:128-n8:16:32:64-S128"
target triple = "x86_64-pc-linux-gnu"

%class.TInfoSink = type { %"class.glslang::TInfoSinkBase", %"class.glslang::TInfoSinkBase" }
%"class.glslang::TInfoSinkBase" = type { %"class.std::__cxx11::basic_string.2", i32, ptr }
%"class.std::__cxx11::basic_string.2" = type { %"struct.std::__cxx11::basic_string<char>::_Alloc_hider", i64, %union.anon.3 }
%"struct.std::__cxx11::basic_string<char>::_Alloc_hider" = type { ptr }
%union.anon.3 = type { i64, [8 x i8] }
%"class.std::__cxx11::basic_string" = type { %"struct.std::__cxx11::basic_string<char, std::char_traits<char>, glslang::pool_allocator<char>>::_Alloc_hider", i64, %union.anon.0 }
%"struct.std::__cxx11::basic_string<char, std::char_traits<char>, glslang::pool_allocator<char>>::_Alloc_hider" = type { %"class.glslang::pool_allocator", ptr }
%"class.glslang::pool_allocator" = type { ptr }
%union.anon.0 = type { i64, [8 x i8] }

@.str.44 = private unnamed_addr constant [2 x i8] c"\0A\00", align 1
@.str.49 = private unnamed_addr constant [18 x i8] c"anonymous member \00", align 1
@.str.50 = private unnamed_addr constant [5 x i8] c" of \00", align 1

; Function Attrs: mustprogress nounwind uwtable
define linkonce_odr noundef ptr @_ZNKSt7__cxx1112basic_stringIcSt11char_traitsIcEN7glslang14pool_allocatorIcEEE7_M_dataEv(ptr noundef nonnull align 8 dereferenceable(40) %0) #0 comdat align 2 {
  %2 = alloca ptr, align 8
  store ptr %0, ptr %2, align 8
  %3 = load ptr, ptr %2, align 8
  %4 = getelementptr inbounds %"class.std::__cxx11::basic_string", ptr %3, i32 0, i32 0
  %5 = getelementptr inbounds %"struct.std::__cxx11::basic_string<char, std::char_traits<char>, glslang::pool_allocator<char>>::_Alloc_hider", ptr %4, i32 0, i32 1
  %6 = load ptr, ptr %5, align 8
  ret ptr %6
}

; Function Attrs: mustprogress nounwind uwtable
define linkonce_odr noundef ptr @_ZNKSt7__cxx1112basic_stringIcSt11char_traitsIcEN7glslang14pool_allocatorIcEEE5c_strEv(ptr noundef nonnull align 8 dereferenceable(40) %0) #0 comdat align 2 {
  %2 = alloca ptr, align 8
  store ptr %0, ptr %2, align 8
  %3 = load ptr, ptr %2, align 8
  %4 = call noundef ptr @_ZNKSt7__cxx1112basic_stringIcSt11char_traitsIcEN7glslang14pool_allocatorIcEEE7_M_dataEv(ptr noundef nonnull align 8 dereferenceable(40) %3)
  ret ptr %4
}

; Function Attrs: mustprogress nounwind uwtable
define linkonce_odr noundef nonnull align 8 dereferenceable(48) ptr @_ZN7glslang13TInfoSinkBaselsEPKc(ptr noundef nonnull align 8 dereferenceable(48) %0, ptr noundef %1) #0 comdat align 2 {
  %3 = alloca ptr, align 8
  %4 = alloca ptr, align 8
  store ptr %0, ptr %3, align 8
  store ptr %1, ptr %4, align 8
  %5 = load ptr, ptr %3, align 8
  %6 = load ptr, ptr %4, align 8
  call void @_ZN7glslang13TInfoSinkBase6appendEPKc(ptr noundef nonnull align 8 dereferenceable(48) %5, ptr noundef %6)
  ret ptr %5
}

; Function Attrs: mustprogress nounwind uwtable
define void @_ZNK7glslang11TAnonMember4dumpER9TInfoSinkb(ptr noundef nonnull align 8 dereferenceable(56) %0, ptr noundef nonnull align 8 dereferenceable(96) %1, i1 noundef zeroext %2) unnamed_addr #0 align 2 {
  %4 = alloca ptr, align 8
  %5 = alloca ptr, align 8
  %6 = alloca i8, align 1
  store ptr %0, ptr %4, align 8
  store ptr %1, ptr %5, align 8
  %7 = zext i1 %2 to i8
  store i8 %7, ptr %6, align 1
  %8 = load ptr, ptr %4, align 8
  %9 = load ptr, ptr %5, align 8
  %10 = getelementptr inbounds %class.TInfoSink, ptr %9, i32 0, i32 1
  %11 = call noundef nonnull align 8 dereferenceable(48) ptr @_ZN7glslang13TInfoSinkBaselsEPKc(ptr noundef nonnull align 8 dereferenceable(48) %10, ptr noundef @.str.49)
  %12 = load ptr, ptr %8, align 8
  %13 = getelementptr inbounds ptr, ptr %12, i64 23
  %14 = load ptr, ptr %13, align 8
  %15 = call noundef i32 %14(ptr noundef nonnull align 8 dereferenceable(56) %8)
  %16 = call noundef nonnull align 8 dereferenceable(48) ptr @_ZN7glslang13TInfoSinkBaselsEj(ptr noundef nonnull align 8 dereferenceable(48) %11, i32 noundef %15)
  %17 = call noundef nonnull align 8 dereferenceable(48) ptr @_ZN7glslang13TInfoSinkBaselsEPKc(ptr noundef nonnull align 8 dereferenceable(48) %16, ptr noundef @.str.50)
  %18 = load ptr, ptr %8, align 8
  %19 = getelementptr inbounds ptr, ptr %18, i64 22
  %20 = load ptr, ptr %19, align 8
  %21 = call noundef nonnull align 8 dereferenceable(236) ptr %20(ptr noundef nonnull align 8 dereferenceable(56) %8)
  %22 = load ptr, ptr %21, align 8
  %23 = getelementptr inbounds ptr, ptr %22, i64 3
  %24 = load ptr, ptr %23, align 8
  %25 = call noundef nonnull align 8 dereferenceable(40) ptr %24(ptr noundef nonnull align 8 dereferenceable(33) %21)
  %26 = call noundef ptr @_ZNKSt7__cxx1112basic_stringIcSt11char_traitsIcEN7glslang14pool_allocatorIcEEE5c_strEv(ptr noundef nonnull align 8 dereferenceable(40) %25) #10
  %27 = call noundef nonnull align 8 dereferenceable(48) ptr @_ZN7glslang13TInfoSinkBaselsEPKc(ptr noundef nonnull align 8 dereferenceable(48) %17, ptr noundef %26)
  %28 = call noundef nonnull align 8 dereferenceable(48) ptr @_ZN7glslang13TInfoSinkBaselsEPKc(ptr noundef nonnull align 8 dereferenceable(48) %27, ptr noundef @.str.44)
  ret void
}